target datalayout = "e-m:e-p270:32:32-p271:32:32-p272:64:64-i64:64-i128:128-f80:128-n8:16:32:64-S128"
target triple = "x86_64-pc-linux-gnu"

%struct.Decorr = type { i32, i32, i32, i32, [8 x i32], [8 x i32], i32, i32 }

; Function Attrs: nounwind uwtable
define internal void @reverse_decorr(ptr noundef %0) #1 {
  %2 = alloca ptr, align 8
  %3 = alloca i32, align 4
  %4 = alloca i32, align 4
  %5 = alloca i32, align 4
  %6 = alloca i32, align 4
  %7 = alloca i32, align 4
  store ptr %0, ptr %2, align 8, !tbaa !101
  %8 = load ptr, ptr %2, align 8, !tbaa !101
  %9 = getelementptr inbounds nuw %struct.Decorr, ptr %8, i32 0, i32 1
  %10 = load i32, ptr %9, align 4, !tbaa !103
  %11 = icmp sgt i32 %10, 8
  br i1 %11, label %12, label %143

12:                                               ; preds = %1
  call void @llvm.lifetime.start.p0(i64 4, ptr %3) #11
  call void @llvm.lifetime.start.p0(i64 4, ptr %4) #11
  %13 = load ptr, ptr %2, align 8, !tbaa !101
  %14 = getelementptr inbounds nuw %struct.Decorr, ptr %13, i32 0, i32 1
  %15 = load i32, ptr %14, align 4, !tbaa !103
  %16 = and i32 %15, 1
  %17 = icmp ne i32 %16, 0
  br i1 %17, label %18, label %39

18:                                               ; preds = %12
  %19 = load ptr, ptr %2, align 8, !tbaa !101
  %20 = getelementptr inbounds nuw %struct.Decorr, ptr %19, i32 0, i32 4
  %21 = getelementptr inbounds [8 x i32], ptr %20, i64 0, i64 0
  %22 = load i32, ptr %21, align 4, !tbaa !39
  %23 = mul nsw i32 2, %22
  %24 = load ptr, ptr %2, align 8, !tbaa !101
  %25 = getelementptr inbounds nuw %struct.Decorr, ptr %24, i32 0, i32 4
  %26 = getelementptr inbounds [8 x i32], ptr %25, i64 0, i64 1
  %27 = load i32, ptr %26, align 4, !tbaa !39
  %28 = sub nsw i32 %23, %27
  store i32 %28, ptr %3, align 4, !tbaa !39
  %29 = load ptr, ptr %2, align 8, !tbaa !101
  %30 = getelementptr inbounds nuw %struct.Decorr, ptr %29, i32 0, i32 5
  %31 = getelementptr inbounds [8 x i32], ptr %30, i64 0, i64 0
  %32 = load i32, ptr %31, align 4, !tbaa !39
  %33 = mul nsw i32 2, %32
  %34 = load ptr, ptr %2, align 8, !tbaa !101
  %35 = getelementptr inbounds nuw %struct.Decorr, ptr %34, i32 0, i32 5
  %36 = getelementptr inbounds [8 x i32], ptr %35, i64 0, i64 1
  %37 = load i32, ptr %36, align 4, !tbaa !39
  %38 = sub nsw i32 %33, %37
  store i32 %38, ptr %4, align 4, !tbaa !39
  br label %62

39:                                               ; preds = %12
  %40 = load ptr, ptr %2, align 8, !tbaa !101
  %41 = getelementptr inbounds nuw %struct.Decorr, ptr %40, i32 0, i32 4
  %42 = getelementptr inbounds [8 x i32], ptr %41, i64 0, i64 0
  %43 = load i32, ptr %42, align 4, !tbaa !39
  %44 = mul nsw i32 3, %43
  %45 = load ptr, ptr %2, align 8, !tbaa !101
  %46 = getelementptr inbounds nuw %struct.Decorr, ptr %45, i32 0, i32 4
  %47 = getelementptr inbounds [8 x i32], ptr %46, i64 0, i64 1
  %48 = load i32, ptr %47, align 4, !tbaa !39
  %49 = sub nsw i32 %44, %48
  %50 = ashr i32 %49, 1
  store i32 %50, ptr %3, align 4, !tbaa !39
  %51 = load ptr, ptr %2, align 8, !tbaa !101
  %52 = getelementptr inbounds nuw %struct.Decorr, ptr %51, i32 0, i32 5
  %53 = getelementptr inbounds [8 x i32], ptr %52, i64 0, i64 0
  %54 = load i32, ptr %53, align 4, !tbaa !39
  %55 = mul nsw i32 3, %54
  %56 = load ptr, ptr %2, align 8, !tbaa !101
  %57 = getelementptr inbounds nuw %struct.Decorr, ptr %56, i32 0, i32 5
  %58 = getelementptr inbounds [8 x i32], ptr %57, i64 0, i64 1
  %59 = load i32, ptr %58, align 4, !tbaa !39
  %60 = sub nsw i32 %55, %59
  %61 = ashr i32 %60, 1
  store i32 %61, ptr %4, align 4, !tbaa !39
  br label %62

62:                                               ; preds = %39, %18
  %63 = load ptr, ptr %2, align 8, !tbaa !101
  %64 = getelementptr inbounds nuw %struct.Decorr, ptr %63, i32 0, i32 4
  %65 = getelementptr inbounds [8 x i32], ptr %64, i64 0, i64 0
  %66 = load i32, ptr %65, align 4, !tbaa !39
  %67 = load ptr, ptr %2, align 8, !tbaa !101
  %68 = getelementptr inbounds nuw %struct.Decorr, ptr %67, i32 0, i32 4
  %69 = getelementptr inbounds [8 x i32], ptr %68, i64 0, i64 1
  store i32 %66, ptr %69, align 4, !tbaa !39
  %70 = load ptr, ptr %2, align 8, !tbaa !101
  %71 = getelementptr inbounds nuw %struct.Decorr, ptr %70, i32 0, i32 5
  %72 = getelementptr inbounds [8 x i32], ptr %71, i64 0, i64 0
  %73 = load i32, ptr %72, align 4, !tbaa !39
  %74 = load ptr, ptr %2, align 8, !tbaa !101
  %75 = getelementptr inbounds nuw %struct.Decorr, ptr %74, i32 0, i32 5
  %76 = getelementptr inbounds [8 x i32], ptr %75, i64 0, i64 1
  store i32 %73, ptr %76, align 4, !tbaa !39
  %77 = load i32, ptr %3, align 4, !tbaa !39
  %78 = load ptr, ptr %2, align 8, !tbaa !101
  %79 = getelementptr inbounds nuw %struct.Decorr, ptr %78, i32 0, i32 4
  %80 = getelementptr inbounds [8 x i32], ptr %79, i64 0, i64 0
  store i32 %77, ptr %80, align 4, !tbaa !39
  %81 = load i32, ptr %4, align 4, !tbaa !39
  %82 = load ptr, ptr %2, align 8, !tbaa !101
  %83 = getelementptr inbounds nuw %struct.Decorr, ptr %82, i32 0, i32 5
  %84 = getelementptr inbounds [8 x i32], ptr %83, i64 0, i64 0
  store i32 %81, ptr %84, align 4, !tbaa !39
  %85 = load ptr, ptr %2, align 8, !tbaa !101
  %86 = getelementptr inbounds nuw %struct.Decorr, ptr %85, i32 0, i32 1
  %87 = load i32, ptr %86, align 4, !tbaa !103
  %88 = and i32 %87, 1
  %89 = icmp ne i32 %88, 0
  br i1 %89, label %90, label %111

90:                                               ; preds = %62
  %91 = load ptr, ptr %2, align 8, !tbaa !101
  %92 = getelementptr inbounds nuw %struct.Decorr, ptr %91, i32 0, i32 4
  %93 = getelementptr inbounds [8 x i32], ptr %92, i64 0, i64 0
  %94 = load i32, ptr %93, align 4, !tbaa !39
  %95 = mul nsw i32 2, %94
  %96 = load ptr, ptr %2, align 8, !tbaa !101
  %97 = getelementptr inbounds nuw %struct.Decorr, ptr %96, i32 0, i32 4
  %98 = getelementptr inbounds [8 x i32], ptr %97, i64 0, i64 1
  %99 = load i32, ptr %98, align 4, !tbaa !39
  %100 = sub nsw i32 %95, %99
  store i32 %100, ptr %3, align 4, !tbaa !39
  %101 = load ptr, ptr %2, align 8, !tbaa !101
  %102 = getelementptr inbounds nuw %struct.Decorr, ptr %101, i32 0, i32 5
  %103 = getelementptr inbounds [8 x i32], ptr %102, i64 0, i64 0
  %104 = load i32, ptr %103, align 4, !tbaa !39
  %105 = mul nsw i32 2, %104
  %106 = load ptr, ptr %2, align 8, !tbaa !101
  %107 = getelementptr inbounds nuw %struct.Decorr, ptr %106, i32 0, i32 5
  %108 = getelementptr inbounds [8 x i32], ptr %107, i64 0, i64 1
  %109 = load i32, ptr %108, align 4, !tbaa !39
  %110 = sub nsw i32 %105, %109
  store i32 %110, ptr %4, align 4, !tbaa !39
  br label %134

111:                                              ; preds = %62
  %112 = load ptr, ptr %2, align 8, !tbaa !101
  %113 = getelementptr inbounds nuw %struct.Decorr, ptr %112, i32 0, i32 4
  %114 = getelementptr inbounds [8 x i32], ptr %113, i64 0, i64 0
  %115 = load i32, ptr %114, align 4, !tbaa !39
  %116 = mul nsw i32 3, %115
  %117 = load ptr, ptr %2, align 8, !tbaa !101
  %118 = getelementptr inbounds nuw %struct.Decorr, ptr %117, i32 0, i32 4
  %119 = getelementptr inbounds [8 x i32], ptr %118, i64 0, i64 1
  %120 = load i32, ptr %119, align 4, !tbaa !39
  %121 = sub nsw i32 %116, %120
  %122 = ashr i32 %121, 1
  store i32 %122, ptr %3, align 4, !tbaa !39
  %123 = load ptr, ptr %2, align 8, !tbaa !101
  %124 = getelementptr inbounds nuw %struct.Decorr, ptr %123, i32 0, i32 5
  %125 = getelementptr inbounds [8 x i32], ptr %124, i64 0, i64 0
  %126 = load i32, ptr %125, align 4, !tbaa !39
  %127 = mul nsw i32 3, %126
  %128 = load ptr, ptr %2, align 8, !tbaa !101
  %129 = getelementptr inbounds nuw %struct.Decorr, ptr %128, i32 0, i32 5
  %130 = getelementptr inbounds [8 x i32], ptr %129, i64 0, i64 1
  %131 = load i32, ptr %130, align 4, !tbaa !39
  %132 = sub nsw i32 %127, %131
  %133 = ashr i32 %132, 1
  store i32 %133, ptr %4, align 4, !tbaa !39
  br label %134

134:                                              ; preds = %111, %90
  %135 = load i32, ptr %3, align 4, !tbaa !39
  %136 = load ptr, ptr %2, align 8, !tbaa !101
  %137 = getelementptr inbounds nuw %struct.Decorr, ptr %136, i32 0, i32 4
  %138 = getelementptr inbounds [8 x i32], ptr %137, i64 0, i64 1
  store i32 %135, ptr %138, align 4, !tbaa !39
  %139 = load i32, ptr %4, align 4, !tbaa !39
  %140 = load ptr, ptr %2, align 8, !tbaa !101
  %141 = getelementptr inbounds nuw %struct.Decorr, ptr %140, i32 0, i32 5
  %142 = getelementptr inbounds [8 x i32], ptr %141, i64 0, i64 1
  store i32 %139, ptr %142, align 4, !tbaa !39
  call void @llvm.lifetime.end.p0(i64 4, ptr %4) #11
  call void @llvm.lifetime.end.p0(i64 4, ptr %3) #11
  br label %252

143:                                              ; preds = %1
  %144 = load ptr, ptr %2, align 8, !tbaa !101
  %145 = getelementptr inbounds nuw %struct.Decorr, ptr %144, i32 0, i32 1
  %146 = load i32, ptr %145, align 4, !tbaa !103
  %147 = icmp sgt i32 %146, 1
  br i1 %147, label %148, label %251

148:                                              ; preds = %143
  call void @llvm.lifetime.start.p0(i64 4, ptr %5) #11
  call void @llvm.lifetime.start.p0(i64 4, ptr %6) #11
  call void @llvm.lifetime.start.p0(i64 4, ptr %7) #11
  store i32 0, ptr %5, align 4, !tbaa !39
  %149 = load ptr, ptr %2, align 8, !tbaa !101
  %150 = getelementptr inbounds nuw %struct.Decorr, ptr %149, i32 0, i32 1
  %151 = load i32, ptr %150, align 4, !tbaa !103
  %152 = sub nsw i32 %151, 1
  store i32 %152, ptr %6, align 4, !tbaa !39
  store i32 0, ptr %7, align 4, !tbaa !39
  br label %153

153:                                              ; preds = %243, %148
  %154 = load i32, ptr %7, align 4, !tbaa !39
  %155 = load ptr, ptr %2, align 8, !tbaa !101
  %156 = getelementptr inbounds nuw %struct.Decorr, ptr %155, i32 0, i32 1
  %157 = load i32, ptr %156, align 4, !tbaa !103
  %158 = sdiv i32 %157, 2
  %159 = icmp slt i32 %154, %158
  br i1 %159, label %160, label %250

160:                                              ; preds = %153
  %161 = load i32, ptr %5, align 4, !tbaa !39
  %162 = and i32 %161, 7
  store i32 %162, ptr %5, align 4, !tbaa !39
  %163 = load i32, ptr %6, align 4, !tbaa !39
  %164 = and i32 %163, 7
  store i32 %164, ptr %6, align 4, !tbaa !39
  %165 = load ptr, ptr %2, align 8, !tbaa !101
  %166 = getelementptr inbounds nuw %struct.Decorr, ptr %165, i32 0, i32 4
  %167 = load i32, ptr %6, align 4, !tbaa !39
  %168 = sext i32 %167 to i64
  %169 = getelementptr inbounds [8 x i32], ptr %166, i64 0, i64 %168
  %170 = load i32, ptr %169, align 4, !tbaa !39
  %171 = load ptr, ptr %2, align 8, !tbaa !101
  %172 = getelementptr inbounds nuw %struct.Decorr, ptr %171, i32 0, i32 4
  %173 = load i32, ptr %5, align 4, !tbaa !39
  %174 = sext i32 %173 to i64
  %175 = getelementptr inbounds [8 x i32], ptr %172, i64 0, i64 %174
  %176 = load i32, ptr %175, align 4, !tbaa !39
  %177 = xor i32 %176, %170
  store i32 %177, ptr %175, align 4, !tbaa !39
  %178 = load ptr, ptr %2, align 8, !tbaa !101
  %179 = getelementptr inbounds nuw %struct.Decorr, ptr %178, i32 0, i32 4
  %180 = load i32, ptr %5, align 4, !tbaa !39
  %181 = sext i32 %180 to i64
  %182 = getelementptr inbounds [8 x i32], ptr %179, i64 0, i64 %181
  %183 = load i32, ptr %182, align 4, !tbaa !39
  %184 = load ptr, ptr %2, align 8, !tbaa !101
  %185 = getelementptr inbounds nuw %struct.Decorr, ptr %184, i32 0, i32 4
  %186 = load i32, ptr %6, align 4, !tbaa !39
  %187 = sext i32 %186 to i64
  %188 = getelementptr inbounds [8 x i32], ptr %185, i64 0, i64 %187
  %189 = load i32, ptr %188, align 4, !tbaa !39
  %190 = xor i32 %189, %183
  store i32 %190, ptr %188, align 4, !tbaa !39
  %191 = load ptr, ptr %2, align 8, !tbaa !101
  %192 = getelementptr inbounds nuw %struct.Decorr, ptr %191, i32 0, i32 4
  %193 = load i32, ptr %6, align 4, !tbaa !39
  %194 = sext i32 %193 to i64
  %195 = getelementptr inbounds [8 x i32], ptr %192, i64 0, i64 %194
  %196 = load i32, ptr %195, align 4, !tbaa !39
  %197 = load ptr, ptr %2, align 8, !tbaa !101
  %198 = getelementptr inbounds nuw %struct.Decorr, ptr %197, i32 0, i32 4
  %199 = load i32, ptr %5, align 4, !tbaa !39
  %200 = sext i32 %199 to i64
  %201 = getelementptr inbounds [8 x i32], ptr %198, i64 0, i64 %200
  %202 = load i32, ptr %201, align 4, !tbaa !39
  %203 = xor i32 %202, %196
  store i32 %203, ptr %201, align 4, !tbaa !39
  %204 = load ptr, ptr %2, align 8, !tbaa !101
  %205 = getelementptr inbounds nuw %struct.Decorr, ptr %204, i32 0, i32 5
  %206 = load i32, ptr %6, align 4, !tbaa !39
  %207 = sext i32 %206 to i64
  %208 = getelementptr inbounds [8 x i32], ptr %205, i64 0, i64 %207
  %209 = load i32, ptr %208, align 4, !tbaa !39
  %210 = load ptr, ptr %2, align 8, !tbaa !101
  %211 = getelementptr inbounds nuw %struct.Decorr, ptr %210, i32 0, i32 5
  %212 = load i32, ptr %5, align 4, !tbaa !39
  %213 = sext i32 %212 to i64
  %214 = getelementptr inbounds [8 x i32], ptr %211, i64 0, i64 %213
  %215 = load i32, ptr %214, align 4, !tbaa !39
  %216 = xor i32 %215, %209
  store i32 %216, ptr %214, align 4, !tbaa !39
  %217 = load ptr, ptr %2, align 8, !tbaa !101
  %218 = getelementptr inbounds nuw %struct.Decorr, ptr %217, i32 0, i32 5
  %219 = load i32, ptr %5, align 4, !tbaa !39
  %220 = sext i32 %219 to i64
  %221 = getelementptr inbounds [8 x i32], ptr %218, i64 0, i64 %220
  %222 = load i32, ptr %221, align 4, !tbaa !39
  %223 = load ptr, ptr %2, align 8, !tbaa !101
  %224 = getelementptr inbounds nuw %struct.Decorr, ptr %223, i32 0, i32 5
  %225 = load i32, ptr %6, align 4, !tbaa !39
  %226 = sext i32 %225 to i64
  %227 = getelementptr inbounds [8 x i32], ptr %224, i64 0, i64 %226
  %228 = load i32, ptr %227, align 4, !tbaa !39
  %229 = xor i32 %228, %222
  store i32 %229, ptr %227, align 4, !tbaa !39
  %230 = load ptr, ptr %2, align 8, !tbaa !101
  %231 = getelementptr inbounds nuw %struct.Decorr, ptr %230, i32 0, i32 5
  %232 = load i32, ptr %6, align 4, !tbaa !39
  %233 = sext i32 %232 to i64
  %234 = getelementptr inbounds [8 x i32], ptr %231, i64 0, i64 %233
  %235 = load i32, ptr %234, align 4, !tbaa !39
  %236 = load ptr, ptr %2, align 8, !tbaa !101
  %237 = getelementptr inbounds nuw %struct.Decorr, ptr %236, i32 0, i32 5
  %238 = load i32, ptr %5, align 4, !tbaa !39
  %239 = sext i32 %238 to i64
  %240 = getelementptr inbounds [8 x i32], ptr %237, i64 0, i64 %239
  %241 = load i32, ptr %240, align 4, !tbaa !39
  %242 = xor i32 %241, %235
  store i32 %242, ptr %240, align 4, !tbaa !39
  br label %243

243:                                              ; preds = %160
  %244 = load i32, ptr %5, align 4, !tbaa !39
  %245 = add nsw i32 %244, 1
  store i32 %245, ptr %5, align 4, !tbaa !39
  %246 = load i32, ptr %6, align 4, !tbaa !39
  %247 = add nsw i32 %246, -1
  store i32 %247, ptr %6, align 4, !tbaa !39
  %248 = load i32, ptr %7, align 4, !tbaa !39
  %249 = add nsw i32 %248, 1
  store i32 %249, ptr %7, align 4, !tbaa !39
  br label %153, !llvm.loop !258

250:                                              ; preds = %153
  call void @llvm.lifetime.end.p0(i64 4, ptr %7) #11
  call void @llvm.lifetime.end.p0(i64 4, ptr %6) #11
  call void @llvm.lifetime.end.p0(i64 4, ptr %5) #11
  br label %251

251:                                              ; preds = %250, %143
  br label %252

252:                                              ; preds = %251, %134
  ret void
}