; Function Attrs: nofree norecurse nosync nounwind memory(argmem: readwrite) uwtable
define internal fastcc void @reverse_decorr(ptr noundef nonnull captures(none) %0) unnamed_addr #9 {
  %2 = getelementptr inbounds nuw i8, ptr %0, i64 4
  %3 = load i32, ptr %2, align 4, !tbaa !117
  %4 = icmp sgt i32 %3, 8
  br i1 %4, label %5, label %43

5:                                                ; preds = %1
  %6 = and i32 %3, 1
  %.not = icmp eq i32 %6, 0
  %7 = getelementptr inbounds nuw i8, ptr %0, i64 16
  %8 = load i32, ptr %7, align 4, !tbaa !58
  %9 = getelementptr inbounds nuw i8, ptr %0, i64 20
  %10 = load i32, ptr %9, align 4, !tbaa !58
  br i1 %.not, label %24, label %11

11:                                               ; preds = %5
  %12 = shl nsw i32 %8, 1
  %13 = sub nsw i32 %12, %10
  %14 = getelementptr inbounds nuw i8, ptr %0, i64 48
  %15 = load i32, ptr %14, align 4, !tbaa !58
  %16 = shl nsw i32 %15, 1
  %17 = getelementptr inbounds nuw i8, ptr %0, i64 52
  %18 = load i32, ptr %17, align 4, !tbaa !58
  %19 = sub nsw i32 %16, %18
  store i32 %13, ptr %7, align 4, !tbaa !58
  store i32 %19, ptr %14, align 4, !tbaa !58
  %20 = shl nsw i32 %13, 1
  %21 = sub nsw i32 %20, %8
  %22 = shl nsw i32 %19, 1
  %23 = sub nsw i32 %22, %15
  br label %41

24:                                               ; preds = %5
  %25 = mul nsw i32 %8, 3
  %26 = sub nsw i32 %25, %10
  %27 = ashr i32 %26, 1
  %28 = getelementptr inbounds nuw i8, ptr %0, i64 48
  %29 = load i32, ptr %28, align 4, !tbaa !58
  %30 = mul nsw i32 %29, 3
  %31 = getelementptr inbounds nuw i8, ptr %0, i64 52
  %32 = load i32, ptr %31, align 4, !tbaa !58
  %33 = sub nsw i32 %30, %32
  %34 = ashr i32 %33, 1
  store i32 %27, ptr %7, align 4, !tbaa !58
  store i32 %34, ptr %28, align 4, !tbaa !58
  %35 = mul nsw i32 %27, 3
  %36 = sub nsw i32 %35, %8
  %37 = ashr i32 %36, 1
  %38 = mul nsw i32 %34, 3
  %39 = sub nsw i32 %38, %29
  %40 = ashr i32 %39, 1
  br label %41

41:                                               ; preds = %24, %11
  %42 = phi ptr [ %17, %11 ], [ %31, %24 ]
  %.167 = phi i32 [ %21, %11 ], [ %37, %24 ]
  %.1 = phi i32 [ %23, %11 ], [ %40, %24 ]
  store i32 %.167, ptr %9, align 4, !tbaa !58
  store i32 %.1, ptr %42, align 4, !tbaa !58
  br label %.loopexit

43:                                               ; preds = %1
  %44 = icmp sgt i32 %3, 1
  br i1 %44, label %.lr.ph, label %.loopexit

.lr.ph:                                           ; preds = %43
  %45 = lshr i32 %3, 1
  %46 = getelementptr inbounds nuw i8, ptr %0, i64 16
  %47 = getelementptr inbounds nuw i8, ptr %0, i64 48
  br label %48

48:                                               ; preds = %.lr.ph, %48
  %.077 = phi i32 [ 0, %.lr.ph ], [ %72, %48 ]
  %.063.in76 = phi i32 [ %3, %.lr.ph ], [ %50, %48 ]
  %.06475 = phi i32 [ 0, %.lr.ph ], [ %71, %48 ]
  %.063 = add nuw i32 %.063.in76, 7
  %49 = and i32 %.06475, 7
  %50 = and i32 %.063, 7
  %51 = zext nneg i32 %50 to i64
  %52 = getelementptr inbounds nuw [8 x i32], ptr %46, i64 0, i64 %51
  %53 = load i32, ptr %52, align 4, !tbaa !58
  %54 = zext nneg i32 %49 to i64
  %55 = getelementptr inbounds nuw [8 x i32], ptr %46, i64 0, i64 %54
  %56 = load i32, ptr %55, align 4, !tbaa !58
  %57 = xor i32 %56, %53
  store i32 %57, ptr %55, align 4, !tbaa !58
  %58 = load i32, ptr %52, align 4, !tbaa !58
  %59 = xor i32 %58, %57
  store i32 %59, ptr %52, align 4, !tbaa !58
  %60 = load i32, ptr %55, align 4, !tbaa !58
  %61 = xor i32 %60, %59
  store i32 %61, ptr %55, align 4, !tbaa !58
  %62 = getelementptr inbounds nuw [8 x i32], ptr %47, i64 0, i64 %51
  %63 = load i32, ptr %62, align 4, !tbaa !58
  %64 = getelementptr inbounds nuw [8 x i32], ptr %47, i64 0, i64 %54
  %65 = load i32, ptr %64, align 4, !tbaa !58
  %66 = xor i32 %65, %63
  store i32 %66, ptr %64, align 4, !tbaa !58
  %67 = load i32, ptr %62, align 4, !tbaa !58
  %68 = xor i32 %67, %66
  store i32 %68, ptr %62, align 4, !tbaa !58
  %69 = load i32, ptr %64, align 4, !tbaa !58
  %70 = xor i32 %69, %68
  store i32 %70, ptr %64, align 4, !tbaa !58
  %71 = add nuw nsw i32 %49, 1
  %72 = add nuw nsw i32 %.077, 1
  %exitcond.not = icmp eq i32 %72, %45
  br i1 %exitcond.not, label %.loopexit, label %48, !llvm.loop !198

.loopexit:                                        ; preds = %48, %43, %41
  ret void
}